target datalayout = "e-m:e-p270:32:32-p271:32:32-p272:64:64-i64:64-i128:128-f80:128-n8:16:32:64-S128"
target triple = "x86_64-pc-linux-gnu"

%struct.H5D_layout_ops_t = type { ptr, ptr, ptr, ptr, ptr, ptr, ptr, ptr, ptr, ptr, ptr, ptr, ptr }
%struct.H5D_t = type { %struct.H5O_loc_t, %struct.H5G_name_t, ptr }
%struct.H5O_loc_t = type { ptr, i64, i8 }
%struct.H5G_name_t = type { ptr, ptr, i32 }
%struct.H5D_shared_t = type { i64, i8, i64, ptr, ptr, i64, i64, %struct.H5D_dcpl_cache_t, %struct.H5O_layout_t, i8, i32, [32 x i64], [32 x i64], [32 x i64], %struct.anon.6, %struct.H5D_append_flush_t, ptr, ptr }
%struct.H5D_dcpl_cache_t = type { %struct.H5O_fill_t, %struct.H5O_pline_t, %struct.H5O_efl_t }
%struct.H5O_fill_t = type { %struct.H5O_shared_t, i32, ptr, i64, ptr, i32, i32, i8 }
%struct.H5O_shared_t = type { i32, ptr, i32, %union.anon }
%union.anon = type { %struct.H5O_mesg_loc_t }
%struct.H5O_mesg_loc_t = type { i32, i64 }
%struct.H5O_pline_t = type { %struct.H5O_shared_t, i32, i64, i64, ptr }
%struct.H5O_efl_t = type { i64, i64, i64, ptr }
%struct.H5O_layout_t = type { i32, i32, ptr, %union.anon.0, %struct.H5O_storage_t }
%union.anon.0 = type { %struct.H5O_layout_chunk_t }
%struct.H5O_layout_chunk_t = type { i32, i8, i32, [33 x i32], i32, i32, i64, i64, [33 x i64], [33 x i64], [33 x i64], [33 x i64], %union.anon.1 }
%union.anon.1 = type { %struct.H5O_layout_chunk_earray_t }
%struct.H5O_layout_chunk_earray_t = type { %struct.anon.2, i32, [33 x i32], [33 x i64], [33 x i64] }
%struct.anon.2 = type { i8, i8, i8, i8, i8 }
%struct.H5O_storage_t = type { i32, %union.anon.4 }
%union.anon.4 = type { %struct.H5O_storage_virtual_t }
%struct.H5O_storage_virtual_t = type { %struct.H5HG_t, i64, ptr, i64, [32 x i64], i32, i64, i64, i64, i8 }
%struct.H5HG_t = type { i64, i64 }
%struct.anon.6 = type { %struct.H5D_rdcdc_t, %struct.H5D_rdcc_t }
%struct.H5D_rdcdc_t = type { ptr, i64, i64, i64, i8 }
%struct.H5D_rdcc_t = type { %struct.anon.7, i64, i64, double, ptr, ptr, ptr, i64, i32, %struct.H5D_chunk_cached_t, ptr, ptr, ptr, ptr, [32 x i64], [32 x i64], [32 x i32] }
%struct.anon.7 = type { i32, i32, i32, i32 }
%struct.H5D_chunk_cached_t = type { i8, [33 x i64], i64, i32, i64, i32 }
%struct.H5D_append_flush_t = type { i32, [32 x i64], ptr, ptr }
%struct.H5O_storage_compact_t = type { i8, i64, ptr }
%struct.H5D_dset_io_info_t = type { ptr, ptr, %struct.H5D_layout_ops_t, %union.H5_flexible_const_ptr_t, %struct.H5D_io_ops_t, ptr, i64, ptr, ptr, %union.anon.8, ptr, %struct.H5D_type_info_t, i8 }
%union.H5_flexible_const_ptr_t = type { ptr }
%struct.H5D_io_ops_t = type { ptr, ptr, ptr, ptr }
%union.anon.8 = type { ptr }
%struct.H5D_type_info_t = type { ptr, ptr, ptr, ptr, ptr, i64, i64, i8, i8, ptr, i32, i64 }
%struct.H5D_compact_storage_t = type { ptr, ptr }
%struct.H5D_io_info_t = type { ptr, %struct.H5D_md_io_ops_t, i32, i64, i64, ptr, i64, i64, i64, ptr, ptr, ptr, ptr, ptr, ptr, ptr, i64, %union.H5_flexible_const_ptr_t, i32, ptr, i8, i64, ptr, i8, i64, i64, i8, i8, i32 }
%struct.H5D_md_io_ops_t = type { ptr, ptr, ptr, ptr }

@H5D_init_g = external global i8, align 1
@H5_libterm_g = external global i8, align 1

; Function Attrs: nounwind uwtable
define internal i32 @H5D__compact_io_init(ptr noundef %0, ptr noundef %1) #0 {
  %3 = alloca ptr, align 8
  %4 = alloca ptr, align 8
  store ptr %0, ptr %3, align 8, !tbaa !57
  store ptr %1, ptr %4, align 8, !tbaa !59
  %5 = load i8, ptr @H5D_init_g, align 1, !tbaa !12, !range !14, !noundef !15
  %6 = trunc i8 %5 to i1
  br i1 %6, label %11, label %7

7:                                                ; preds = %2
  %8 = load i8, ptr @H5_libterm_g, align 1, !tbaa !12, !range !14, !noundef !15
  %9 = trunc i8 %8 to i1
  %10 = xor i1 %9, true
  br label %11

11:                                               ; preds = %7, %2
  %12 = phi i1 [ true, %2 ], [ %10, %7 ]
  %13 = xor i1 %12, true
  %14 = xor i1 %13, true
  %15 = zext i1 %14 to i32
  %16 = sext i32 %15 to i64
  %17 = call i64 @llvm.expect.i64(i64 %16, i64 1)
  %18 = icmp ne i64 %17, 0
  br i1 %18, label %19, label %55

19:                                               ; preds = %11
  %20 = load ptr, ptr %4, align 8, !tbaa !59
  %21 = getelementptr inbounds nuw %struct.H5D_dset_io_info_t, ptr %20, i32 0, i32 0
  %22 = load ptr, ptr %21, align 8, !tbaa !61
  %23 = getelementptr inbounds nuw %struct.H5D_t, ptr %22, i32 0, i32 2
  %24 = load ptr, ptr %23, align 8, !tbaa !16
  %25 = getelementptr inbounds nuw %struct.H5D_shared_t, ptr %24, i32 0, i32 8
  %26 = getelementptr inbounds nuw %struct.H5O_layout_t, ptr %25, i32 0, i32 4
  %27 = getelementptr inbounds nuw %struct.H5O_storage_t, ptr %26, i32 0, i32 1
  %28 = getelementptr inbounds nuw %struct.H5O_storage_compact_t, ptr %27, i32 0, i32 2
  %29 = load ptr, ptr %28, align 8, !tbaa !54
  %30 = load ptr, ptr %4, align 8, !tbaa !59
  %31 = getelementptr inbounds nuw %struct.H5D_dset_io_info_t, ptr %30, i32 0, i32 1
  %32 = load ptr, ptr %31, align 8, !tbaa !70
  %33 = getelementptr inbounds nuw %struct.H5D_compact_storage_t, ptr %32, i32 0, i32 0
  store ptr %29, ptr %33, align 8, !tbaa !54
  %34 = load ptr, ptr %4, align 8, !tbaa !59
  %35 = getelementptr inbounds nuw %struct.H5D_dset_io_info_t, ptr %34, i32 0, i32 0
  %36 = load ptr, ptr %35, align 8, !tbaa !61
  %37 = getelementptr inbounds nuw %struct.H5D_t, ptr %36, i32 0, i32 2
  %38 = load ptr, ptr %37, align 8, !tbaa !16
  %39 = getelementptr inbounds nuw %struct.H5D_shared_t, ptr %38, i32 0, i32 8
  %40 = getelementptr inbounds nuw %struct.H5O_layout_t, ptr %39, i32 0, i32 4
  %41 = getelementptr inbounds nuw %struct.H5O_storage_t, ptr %40, i32 0, i32 1
  %42 = getelementptr inbounds nuw %struct.H5O_storage_compact_t, ptr %41, i32 0, i32 0
  %43 = load ptr, ptr %4, align 8, !tbaa !59
  %44 = getelementptr inbounds nuw %struct.H5D_dset_io_info_t, ptr %43, i32 0, i32 1
  %45 = load ptr, ptr %44, align 8, !tbaa !70
  %46 = getelementptr inbounds nuw %struct.H5D_compact_storage_t, ptr %45, i32 0, i32 1
  store ptr %42, ptr %46, align 8, !tbaa !54
  %47 = load ptr, ptr %4, align 8, !tbaa !59
  %48 = getelementptr inbounds nuw %struct.H5D_dset_io_info_t, ptr %47, i32 0, i32 9
  store ptr null, ptr %48, align 8, !tbaa !54
  %49 = load ptr, ptr %3, align 8, !tbaa !57
  %50 = getelementptr inbounds nuw %struct.H5D_io_info_t, ptr %49, i32 0, i32 18
  store i32 1, ptr %50, align 8, !tbaa !71
  %51 = load ptr, ptr %3, align 8, !tbaa !57
  %52 = getelementptr inbounds nuw %struct.H5D_io_info_t, ptr %51, i32 0, i32 28
  %53 = load i32, ptr %52, align 4, !tbaa !78
  %54 = or i32 %53, 2
  store i32 %54, ptr %52, align 4, !tbaa !78
  br label %55

55:                                               ; preds = %19, %11
  ret i32 0
}