; Function Attrs: mustprogress nofree norecurse nosync nounwind willreturn memory(readwrite, inaccessiblemem: none) uwtable
define internal noundef i32 @H5D__compact_io_init(ptr noundef captures(none) %0, ptr noundef captures(none) %1) #2 {
  %3 = load i8, ptr @H5D_init_g, align 1, !tbaa !3, !range !7, !noundef !8
  %4 = trunc nuw i8 %3 to i1
  %5 = load i8, ptr @H5_libterm_g, align 1, !range !7
  %6 = trunc nuw i8 %5 to i1
  %7 = xor i1 %6, true
  %8 = select i1 %4, i1 true, i1 %7
  br i1 %8, label %9, label %28, !prof !9

9:                                                ; preds = %2
  %10 = load ptr, ptr %1, align 8, !tbaa !52
  %11 = getelementptr inbounds nuw i8, ptr %10, i64 48
  %12 = load ptr, ptr %11, align 8, !tbaa !10
  %13 = getelementptr inbounds nuw i8, ptr %12, i64 2184
  %14 = load ptr, ptr %13, align 8, !tbaa !51
  %15 = getelementptr inbounds nuw i8, ptr %1, i64 8
  %16 = load ptr, ptr %15, align 8, !tbaa !62
  store ptr %14, ptr %16, align 8, !tbaa !51
  %17 = load ptr, ptr %1, align 8, !tbaa !52
  %18 = getelementptr inbounds nuw i8, ptr %17, i64 48
  %19 = load ptr, ptr %18, align 8, !tbaa !10
  %20 = getelementptr inbounds nuw i8, ptr %19, i64 2168
  %21 = load ptr, ptr %15, align 8, !tbaa !62
  %22 = getelementptr inbounds nuw i8, ptr %21, i64 8
  store ptr %20, ptr %22, align 8, !tbaa !51
  %23 = getelementptr inbounds nuw i8, ptr %1, i64 192
  store ptr null, ptr %23, align 8, !tbaa !51
  %24 = getelementptr inbounds nuw i8, ptr %0, i64 168
  store i32 1, ptr %24, align 8, !tbaa !63
  %25 = getelementptr inbounds nuw i8, ptr %0, i64 236
  %26 = load i32, ptr %25, align 4, !tbaa !71
  %27 = or i32 %26, 2
  store i32 %27, ptr %25, align 4, !tbaa !71
  br label %28

28:                                               ; preds = %9, %2
  ret i32 0
}